target datalayout = "e-m:e-p270:32:32-p271:32:32-p272:64:64-i64:64-i128:128-f80:128-n8:16:32:64-S128"
target triple = "x86_64-pc-linux-gnu"

%"struct.ODDLParser::Text" = type { i64, i64, ptr }
%"struct.ODDLParser::Name" = type { i32, ptr }
%"struct.ODDLParser::Reference" = type { i64, ptr }

; Function Attrs: mustprogress nounwind uwtable
define hidden noundef i64 @_ZN10ODDLParser9Reference11sizeInBytesEv(ptr noundef nonnull align 8 dereferenceable(16) %0) #1 align 2 {
  %2 = alloca i64, align 8
  %3 = alloca ptr, align 8
  %4 = alloca i64, align 8
  %5 = alloca i64, align 8
  %6 = alloca ptr, align 8
  store ptr %0, ptr %3, align 8
  %7 = load ptr, ptr %3, align 8
  %8 = getelementptr inbounds nuw %"struct.ODDLParser::Reference", ptr %7, i32 0, i32 0
  %9 = load i64, ptr %8, align 8
  %10 = icmp eq i64 0, %9
  br i1 %10, label %11, label %12

11:                                               ; preds = %1
  store i64 0, ptr %2, align 8
  br label %41

12:                                               ; preds = %1
  call void @llvm.lifetime.start.p0(i64 8, ptr %4) #10
  store i64 0, ptr %4, align 8
  call void @llvm.lifetime.start.p0(i64 8, ptr %5) #10
  store i64 0, ptr %5, align 8
  br label %13

13:                                               ; preds = %36, %12
  %14 = load i64, ptr %5, align 8
  %15 = getelementptr inbounds nuw %"struct.ODDLParser::Reference", ptr %7, i32 0, i32 0
  %16 = load i64, ptr %15, align 8
  %17 = icmp ult i64 %14, %16
  br i1 %17, label %19, label %18

18:                                               ; preds = %13
  call void @llvm.lifetime.end.p0(i64 8, ptr %5) #10
  br label %39

19:                                               ; preds = %13
  call void @llvm.lifetime.start.p0(i64 8, ptr %6) #10
  %20 = getelementptr inbounds nuw %"struct.ODDLParser::Reference", ptr %7, i32 0, i32 1
  %21 = load ptr, ptr %20, align 8
  %22 = load i64, ptr %5, align 8
  %23 = getelementptr inbounds nuw ptr, ptr %21, i64 %22
  %24 = load ptr, ptr %23, align 8
  store ptr %24, ptr %6, align 8
  %25 = load ptr, ptr %6, align 8
  %26 = icmp ne ptr null, %25
  br i1 %26, label %27, label %35

27:                                               ; preds = %19
  %28 = load ptr, ptr %6, align 8
  %29 = getelementptr inbounds nuw %"struct.ODDLParser::Name", ptr %28, i32 0, i32 1
  %30 = load ptr, ptr %29, align 8
  %31 = getelementptr inbounds nuw %"struct.ODDLParser::Text", ptr %30, i32 0, i32 1
  %32 = load i64, ptr %31, align 8
  %33 = load i64, ptr %4, align 8
  %34 = add i64 %33, %32
  store i64 %34, ptr %4, align 8
  br label %35

35:                                               ; preds = %27, %19
  call void @llvm.lifetime.end.p0(i64 8, ptr %6) #10
  br label %36

36:                                               ; preds = %35
  %37 = load i64, ptr %5, align 8
  %38 = add i64 %37, 1
  store i64 %38, ptr %5, align 8
  br label %13, !llvm.loop !7

39:                                               ; preds = %18
  %40 = load i64, ptr %4, align 8
  store i64 %40, ptr %2, align 8
  call void @llvm.lifetime.end.p0(i64 8, ptr %4) #10
  br label %41

41:                                               ; preds = %39, %11
  %42 = load i64, ptr %2, align 8
  ret i64 %42
}