; Function Attrs: mustprogress nofree norecurse nosync nounwind willreturn memory(read, inaccessiblemem: none) uwtable
define hidden noundef i64 @_ZN10ODDLParser9Reference11sizeInBytesEv(ptr noundef nonnull readonly align 8 captures(none) dereferenceable(16) %0) local_unnamed_addr #8 align 2 {
  %2 = load i64, ptr %0, align 8
  %3 = icmp eq i64 %2, 0
  br i1 %3, label %.loopexit, label %.preheader

.preheader:                                       ; preds = %1
  %4 = getelementptr inbounds nuw i8, ptr %0, i64 8
  %5 = load ptr, ptr %4, align 8
  br label %6

6:                                                ; preds = %.preheader, %15
  %.0812 = phi i64 [ 0, %.preheader ], [ %16, %15 ]
  %.0911 = phi i64 [ 0, %.preheader ], [ %.1, %15 ]
  %7 = getelementptr inbounds nuw ptr, ptr %5, i64 %.0812
  %8 = load ptr, ptr %7, align 8
  %.not = icmp eq ptr %8, null
  br i1 %.not, label %15, label %9

9:                                                ; preds = %6
  %10 = getelementptr inbounds nuw i8, ptr %8, i64 8
  %11 = load ptr, ptr %10, align 8
  %12 = getelementptr inbounds nuw i8, ptr %11, i64 8
  %13 = load i64, ptr %12, align 8
  %14 = add i64 %13, %.0911
  br label %15

15:                                               ; preds = %9, %6
  %.1 = phi i64 [ %14, %9 ], [ %.0911, %6 ]
  %16 = add nuw i64 %.0812, 1
  %exitcond.not = icmp eq i64 %16, %2
  br i1 %exitcond.not, label %.loopexit, label %6, !llvm.loop !7

.loopexit:                                        ; preds = %15, %1
  %.0 = phi i64 [ 0, %1 ], [ %.1, %15 ]
  ret i64 %.0
}